target datalayout = "e-m:e-p270:32:32-p271:32:32-p272:64:64-i64:64-i128:128-f80:128-n8:16:32:64-S128"
target triple = "x86_64-pc-linux-gnu"

%struct.Vec_Int_t_ = type { i32, i32, ptr }
%struct.Pla_Man_t_ = type { ptr, ptr, i32, i32, i32, i32, i32, %struct.Vec_Int_t_, %struct.Vec_Int_t_, %struct.Vec_Wrd_t_, %struct.Vec_Wrd_t_, %struct.Vec_Wec_t_, %struct.Vec_Wec_t_, %struct.Vec_Int_t_ }
%struct.Vec_Wrd_t_ = type { i32, i32, ptr }
%struct.Vec_Wec_t_ = type { i32, i32, ptr }
%struct.timespec = type { i64, i64 }

@.str.16 = private unnamed_addr constant [61 x i8] c"Found %d pairs among %d cubes using cube pair enumeration.  \00", align 1
@.str.17 = private unnamed_addr constant [5 x i8] c"Time\00", align 1
@.str.18 = private unnamed_addr constant [5 x i8] c"%s =\00", align 1
@.str.19 = private unnamed_addr constant [11 x i8] c"%9.2f sec\0A\00", align 1

; Function Attrs: inlinehint nounwind uwtable
define internal i32 @Pla_OnlyOneOne(i64 noundef %0) #4 {
  %2 = alloca i64, align 8
  store i64 %0, ptr %2, align 8, !tbaa !49
  %3 = load i64, ptr %2, align 8, !tbaa !49
  %4 = icmp ne i64 %3, 0
  br i1 %4, label %5, label %12

5:                                                ; preds = %1
  %6 = load i64, ptr %2, align 8, !tbaa !49
  %7 = load i64, ptr %2, align 8, !tbaa !49
  %8 = sub i64 %7, 1
  %9 = and i64 %6, %8
  %10 = icmp eq i64 %9, 0
  %11 = zext i1 %10 to i32
  br label %13

12:                                               ; preds = %1
  br label %13

13:                                               ; preds = %12, %5
  %14 = phi i32 [ %11, %5 ], [ 0, %12 ]
  ret i32 %14
}

; Function Attrs: inlinehint nounwind uwtable
define internal ptr @Vec_WrdEntryP(ptr noundef %0, i32 noundef %1) #4 {
  %3 = alloca ptr, align 8
  %4 = alloca i32, align 4
  store ptr %0, ptr %3, align 8, !tbaa !68
  store i32 %1, ptr %4, align 4, !tbaa !3
  %5 = load ptr, ptr %3, align 8, !tbaa !68
  %6 = getelementptr inbounds nuw %struct.Vec_Wrd_t_, ptr %5, i32 0, i32 2
  %7 = load ptr, ptr %6, align 8, !tbaa !70
  %8 = load i32, ptr %4, align 4, !tbaa !3
  %9 = sext i32 %8 to i64
  %10 = getelementptr inbounds i64, ptr %7, i64 %9
  ret ptr %10
}

; Function Attrs: inlinehint nounwind uwtable
define internal i32 @Vec_IntSize(ptr noundef %0) #4 {
  %2 = alloca ptr, align 8
  store ptr %0, ptr %2, align 8, !tbaa !24
  %3 = load ptr, ptr %2, align 8, !tbaa !24
  %4 = getelementptr inbounds nuw %struct.Vec_Int_t_, ptr %3, i32 0, i32 1
  %5 = load i32, ptr %4, align 4, !tbaa !27
  ret i32 %5
}

; Function Attrs: inlinehint nounwind uwtable
define internal i32 @Pla_CubesAreDistance1(ptr noundef %0, ptr noundef %1, i32 noundef %2) #4 {
  %4 = alloca i32, align 4
  %5 = alloca ptr, align 8
  %6 = alloca ptr, align 8
  %7 = alloca i32, align 4
  %8 = alloca i64, align 8
  %9 = alloca i32, align 4
  %10 = alloca i32, align 4
  %11 = alloca i32, align 4
  store ptr %0, ptr %5, align 8, !tbaa !35
  store ptr %1, ptr %6, align 8, !tbaa !35
  store i32 %2, ptr %7, align 4, !tbaa !3
  call void @llvm.lifetime.start.p0(i64 8, ptr %8) #11
  call void @llvm.lifetime.start.p0(i64 4, ptr %9) #11
  call void @llvm.lifetime.start.p0(i64 4, ptr %10) #11
  store i32 0, ptr %10, align 4, !tbaa !3
  store i32 0, ptr %9, align 4, !tbaa !3
  br label %12

12:                                               ; preds = %64, %3
  %13 = load i32, ptr %9, align 4, !tbaa !3
  %14 = load i32, ptr %7, align 4, !tbaa !3
  %15 = icmp slt i32 %13, %14
  br i1 %15, label %16, label %67

16:                                               ; preds = %12
  %17 = load ptr, ptr %5, align 8, !tbaa !35
  %18 = load i32, ptr %9, align 4, !tbaa !3
  %19 = sext i32 %18 to i64
  %20 = getelementptr inbounds i64, ptr %17, i64 %19
  %21 = load i64, ptr %20, align 8, !tbaa !49
  %22 = load ptr, ptr %6, align 8, !tbaa !35
  %23 = load i32, ptr %9, align 4, !tbaa !3
  %24 = sext i32 %23 to i64
  %25 = getelementptr inbounds i64, ptr %22, i64 %24
  %26 = load i64, ptr %25, align 8, !tbaa !49
  %27 = icmp eq i64 %21, %26
  br i1 %27, label %28, label %29

28:                                               ; preds = %16
  br label %64

29:                                               ; preds = %16
  %30 = load i32, ptr %10, align 4, !tbaa !3
  %31 = icmp ne i32 %30, 0
  br i1 %31, label %32, label %33

32:                                               ; preds = %29
  store i32 0, ptr %4, align 4
  store i32 1, ptr %11, align 4
  br label %69

33:                                               ; preds = %29
  %34 = load ptr, ptr %5, align 8, !tbaa !35
  %35 = load i32, ptr %9, align 4, !tbaa !3
  %36 = sext i32 %35 to i64
  %37 = getelementptr inbounds i64, ptr %34, i64 %36
  %38 = load i64, ptr %37, align 8, !tbaa !49
  %39 = load ptr, ptr %6, align 8, !tbaa !35
  %40 = load i32, ptr %9, align 4, !tbaa !3
  %41 = sext i32 %40 to i64
  %42 = getelementptr inbounds i64, ptr %39, i64 %41
  %43 = load i64, ptr %42, align 8, !tbaa !49
  %44 = xor i64 %38, %43
  %45 = load ptr, ptr %5, align 8, !tbaa !35
  %46 = load i32, ptr %9, align 4, !tbaa !3
  %47 = sext i32 %46 to i64
  %48 = getelementptr inbounds i64, ptr %45, i64 %47
  %49 = load i64, ptr %48, align 8, !tbaa !49
  %50 = load ptr, ptr %6, align 8, !tbaa !35
  %51 = load i32, ptr %9, align 4, !tbaa !3
  %52 = sext i32 %51 to i64
  %53 = getelementptr inbounds i64, ptr %50, i64 %52
  %54 = load i64, ptr %53, align 8, !tbaa !49
  %55 = xor i64 %49, %54
  %56 = lshr i64 %55, 1
  %57 = or i64 %44, %56
  %58 = and i64 %57, 6148914691236517205
  store i64 %58, ptr %8, align 8, !tbaa !49
  %59 = load i64, ptr %8, align 8, !tbaa !49
  %60 = call i32 @Pla_OnlyOneOne(i64 noundef %59)
  %61 = icmp ne i32 %60, 0
  br i1 %61, label %63, label %62

62:                                               ; preds = %33
  store i32 0, ptr %4, align 4
  store i32 1, ptr %11, align 4
  br label %69

63:                                               ; preds = %33
  store i32 1, ptr %10, align 4, !tbaa !3
  br label %64

64:                                               ; preds = %63, %28
  %65 = load i32, ptr %9, align 4, !tbaa !3
  %66 = add nsw i32 %65, 1
  store i32 %66, ptr %9, align 4, !tbaa !3
  br label %12, !llvm.loop !75

67:                                               ; preds = %12
  %68 = load i32, ptr %10, align 4, !tbaa !3
  store i32 %68, ptr %4, align 4
  store i32 1, ptr %11, align 4
  br label %69

69:                                               ; preds = %67, %62, %32
  call void @llvm.lifetime.end.p0(i64 4, ptr %10) #11
  call void @llvm.lifetime.end.p0(i64 4, ptr %9) #11
  call void @llvm.lifetime.end.p0(i64 8, ptr %8) #11
  %70 = load i32, ptr %4, align 4
  ret i32 %70
}

; Function Attrs: inlinehint nounwind uwtable
define internal ptr @Pla_CubeIn(ptr noundef %0, i32 noundef %1) #4 {
  %3 = alloca ptr, align 8
  %4 = alloca i32, align 4
  store ptr %0, ptr %3, align 8, !tbaa !33
  store i32 %1, ptr %4, align 4, !tbaa !3
  %5 = load ptr, ptr %3, align 8, !tbaa !33
  %6 = getelementptr inbounds nuw %struct.Pla_Man_t_, ptr %5, i32 0, i32 9
  %7 = load i32, ptr %4, align 4, !tbaa !3
  %8 = load ptr, ptr %3, align 8, !tbaa !33
  %9 = getelementptr inbounds nuw %struct.Pla_Man_t_, ptr %8, i32 0, i32 5
  %10 = load i32, ptr %9, align 4, !tbaa !47
  %11 = mul nsw i32 %7, %10
  %12 = call ptr @Vec_WrdEntryP(ptr noundef %6, i32 noundef %11)
  ret ptr %12
}

; Function Attrs: inlinehint nounwind uwtable
define internal void @Abc_PrintTime(i32 noundef %0, ptr noundef %1, i64 noundef %2) #4 {
  %4 = alloca i32, align 4
  %5 = alloca ptr, align 8
  %6 = alloca i64, align 8
  store i32 %0, ptr %4, align 4, !tbaa !3
  store ptr %1, ptr %5, align 8, !tbaa !31
  store i64 %2, ptr %6, align 8, !tbaa !49
  %7 = load ptr, ptr %5, align 8, !tbaa !31
  call void (i32, ptr, ...) @Abc_Print(i32 noundef 1, ptr noundef @.str.18, ptr noundef %7)
  %8 = load i64, ptr %6, align 8, !tbaa !49
  %9 = sitofp i64 %8 to double
  %10 = fmul double 1.000000e+00, %9
  %11 = fdiv double %10, 1.000000e+06
  call void (i32, ptr, ...) @Abc_Print(i32 noundef 1, ptr noundef @.str.19, double noundef %11)
  ret void
}

; Function Attrs: inlinehint nounwind uwtable
define internal i32 @Pla_ManCubeNum(ptr noundef %0) #4 {
  %2 = alloca ptr, align 8
  store ptr %0, ptr %2, align 8, !tbaa !33
  %3 = load ptr, ptr %2, align 8, !tbaa !33
  %4 = getelementptr inbounds nuw %struct.Pla_Man_t_, ptr %3, i32 0, i32 7
  %5 = call i32 @Vec_IntSize(ptr noundef %4)
  ret i32 %5
}

; Function Attrs: nounwind uwtable
define i32 @Pla_ManDist1Num(ptr noundef %0) #0 {
  %2 = alloca ptr, align 8
  %3 = alloca ptr, align 8
  %4 = alloca ptr, align 8
  %5 = alloca i32, align 4
  %6 = alloca i32, align 4
  %7 = alloca i32, align 4
  %8 = alloca i32, align 4
  store ptr %0, ptr %2, align 8, !tbaa !33
  call void @llvm.lifetime.start.p0(i64 8, ptr %3) #11
  call void @llvm.lifetime.start.p0(i64 8, ptr %4) #11
  call void @llvm.lifetime.start.p0(i64 4, ptr %5) #11
  call void @llvm.lifetime.start.p0(i64 4, ptr %6) #11
  call void @llvm.lifetime.start.p0(i64 4, ptr %7) #11
  call void @llvm.lifetime.start.p0(i64 4, ptr %8) #11
  store i32 0, ptr %8, align 4, !tbaa !3
  store i32 0, ptr %5, align 4, !tbaa !3
  br label %9

9:                                                ; preds = %50, %1
  %10 = load i32, ptr %5, align 4, !tbaa !3
  %11 = load ptr, ptr %2, align 8, !tbaa !33
  %12 = call i32 @Pla_ManCubeNum(ptr noundef %11)
  %13 = icmp slt i32 %10, %12
  br i1 %13, label %14, label %18

14:                                               ; preds = %9
  %15 = load ptr, ptr %2, align 8, !tbaa !33
  %16 = load i32, ptr %5, align 4, !tbaa !3
  %17 = call ptr @Pla_CubeIn(ptr noundef %15, i32 noundef %16)
  store ptr %17, ptr %3, align 8, !tbaa !35
  br label %18

18:                                               ; preds = %14, %9
  %19 = phi i1 [ false, %9 ], [ true, %14 ]
  br i1 %19, label %20, label %53

20:                                               ; preds = %18
  %21 = load i32, ptr %5, align 4, !tbaa !3
  %22 = add nsw i32 %21, 1
  store i32 %22, ptr %6, align 4, !tbaa !3
  br label %23

23:                                               ; preds = %46, %20
  %24 = load i32, ptr %6, align 4, !tbaa !3
  %25 = load ptr, ptr %2, align 8, !tbaa !33
  %26 = call i32 @Pla_ManCubeNum(ptr noundef %25)
  %27 = icmp slt i32 %24, %26
  br i1 %27, label %28, label %32

28:                                               ; preds = %23
  %29 = load ptr, ptr %2, align 8, !tbaa !33
  %30 = load i32, ptr %6, align 4, !tbaa !3
  %31 = call ptr @Pla_CubeIn(ptr noundef %29, i32 noundef %30)
  store ptr %31, ptr %4, align 8, !tbaa !35
  br label %32

32:                                               ; preds = %28, %23
  %33 = phi i1 [ false, %23 ], [ true, %28 ]
  br i1 %33, label %34, label %49

34:                                               ; preds = %32
  %35 = load ptr, ptr %3, align 8, !tbaa !35
  %36 = load ptr, ptr %4, align 8, !tbaa !35
  %37 = load ptr, ptr %2, align 8, !tbaa !33
  %38 = getelementptr inbounds nuw %struct.Pla_Man_t_, ptr %37, i32 0, i32 5
  %39 = load i32, ptr %38, align 4, !tbaa !47
  %40 = call i32 @Pla_CubesAreDistance1(ptr noundef %35, ptr noundef %36, i32 noundef %39)
  store i32 %40, ptr %7, align 4, !tbaa !3
  %41 = load i32, ptr %7, align 4, !tbaa !3
  %42 = icmp eq i32 %41, 1
  %43 = zext i1 %42 to i32
  %44 = load i32, ptr %8, align 4, !tbaa !3
  %45 = add nsw i32 %44, %43
  store i32 %45, ptr %8, align 4, !tbaa !3
  br label %46

46:                                               ; preds = %34
  %47 = load i32, ptr %6, align 4, !tbaa !3
  %48 = add nsw i32 %47, 1
  store i32 %48, ptr %6, align 4, !tbaa !3
  br label %23, !llvm.loop !73

49:                                               ; preds = %32
  br label %50

50:                                               ; preds = %49
  %51 = load i32, ptr %5, align 4, !tbaa !3
  %52 = add nsw i32 %51, 1
  store i32 %52, ptr %5, align 4, !tbaa !3
  br label %9, !llvm.loop !74

53:                                               ; preds = %18
  %54 = load i32, ptr %8, align 4, !tbaa !3
  call void @llvm.lifetime.end.p0(i64 4, ptr %8) #11
  call void @llvm.lifetime.end.p0(i64 4, ptr %7) #11
  call void @llvm.lifetime.end.p0(i64 4, ptr %6) #11
  call void @llvm.lifetime.end.p0(i64 4, ptr %5) #11
  call void @llvm.lifetime.end.p0(i64 8, ptr %4) #11
  call void @llvm.lifetime.end.p0(i64 8, ptr %3) #11
  ret i32 %54
}

; Function Attrs: inlinehint nounwind uwtable
define internal i64 @Abc_Clock() #4 {
  %1 = alloca i64, align 8
  %2 = alloca %struct.timespec, align 8
  %3 = alloca i32, align 4
  %4 = alloca i64, align 8
  call void @llvm.lifetime.start.p0(i64 16, ptr %2) #11
  %5 = call i32 @clock_gettime(i32 noundef 1, ptr noundef %2) #11
  %6 = icmp slt i32 %5, 0
  br i1 %6, label %7, label %8

7:                                                ; preds = %0
  store i64 -1, ptr %1, align 8
  store i32 1, ptr %3, align 4
  br label %19

8:                                                ; preds = %0
  call void @llvm.lifetime.start.p0(i64 8, ptr %4) #11
  %9 = getelementptr inbounds nuw %struct.timespec, ptr %2, i32 0, i32 0
  %10 = load i64, ptr %9, align 8, !tbaa !79
  %11 = mul nsw i64 %10, 1000000
  store i64 %11, ptr %4, align 8, !tbaa !49
  %12 = getelementptr inbounds nuw %struct.timespec, ptr %2, i32 0, i32 1
  %13 = load i64, ptr %12, align 8, !tbaa !81
  %14 = mul nsw i64 %13, 1000000
  %15 = sdiv i64 %14, 1000000000
  %16 = load i64, ptr %4, align 8, !tbaa !49
  %17 = add nsw i64 %16, %15
  store i64 %17, ptr %4, align 8, !tbaa !49
  %18 = load i64, ptr %4, align 8, !tbaa !49
  store i64 %18, ptr %1, align 8
  store i32 1, ptr %3, align 4
  call void @llvm.lifetime.end.p0(i64 8, ptr %4) #11
  br label %19

19:                                               ; preds = %8, %7
  call void @llvm.lifetime.end.p0(i64 16, ptr %2) #11
  %20 = load i64, ptr %1, align 8
  ret i64 %20
}

; Function Attrs: nounwind uwtable
define i32 @Pla_ManDist1NumTest(ptr noundef %0) #0 {
  %2 = alloca ptr, align 8
  %3 = alloca i64, align 8
  %4 = alloca i32, align 4
  store ptr %0, ptr %2, align 8, !tbaa !33
  call void @llvm.lifetime.start.p0(i64 8, ptr %3) #11
  %5 = call i64 @Abc_Clock()
  store i64 %5, ptr %3, align 8, !tbaa !49
  call void @llvm.lifetime.start.p0(i64 4, ptr %4) #11
  %6 = load ptr, ptr %2, align 8, !tbaa !33
  %7 = call i32 @Pla_ManDist1Num(ptr noundef %6)
  store i32 %7, ptr %4, align 4, !tbaa !3
  %8 = load i32, ptr %4, align 4, !tbaa !3
  %9 = load ptr, ptr %2, align 8, !tbaa !33
  %10 = call i32 @Pla_ManCubeNum(ptr noundef %9)
  %11 = call i32 (ptr, ...) @printf(ptr noundef @.str.16, i32 noundef %8, i32 noundef %10)
  %12 = call i64 @Abc_Clock()
  %13 = load i64, ptr %3, align 8, !tbaa !49
  %14 = sub nsw i64 %12, %13
  call void @Abc_PrintTime(i32 noundef 1, ptr noundef @.str.17, i64 noundef %14)
  call void @llvm.lifetime.end.p0(i64 4, ptr %4) #11
  call void @llvm.lifetime.end.p0(i64 8, ptr %3) #11
  ret i32 1
}