; Function Attrs: nounwind uwtable
define noundef i32 @Pla_ManDist1NumTest(ptr noundef readonly captures(none) %0) local_unnamed_addr #0 {
  %2 = alloca %struct.timespec, align 8
  %3 = alloca %struct.timespec, align 8
  call void @llvm.lifetime.start.p0(i64 16, ptr nonnull %3) #18
  %4 = call i32 @clock_gettime(i32 noundef 1, ptr noundef nonnull %3) #18
  %5 = icmp slt i32 %4, 0
  br i1 %5, label %Abc_Clock.exit, label %6

6:                                                ; preds = %1
  %7 = load i64, ptr %3, align 8, !tbaa !65
  %.neg5 = mul i64 %7, -1000000
  %8 = getelementptr inbounds nuw i8, ptr %3, i64 8
  %9 = load i64, ptr %8, align 8, !tbaa !67
  %.neg = sdiv i64 %9, -1000
  %.neg6 = add i64 %.neg, %.neg5
  br label %Abc_Clock.exit

Abc_Clock.exit:                                   ; preds = %1, %6
  %.0.i.neg = phi i64 [ %.neg6, %6 ], [ 1, %1 ]
  call void @llvm.lifetime.end.p0(i64 16, ptr nonnull %3) #18
  %10 = getelementptr i8, ptr %0, i64 44
  %.val20.i = load i32, ptr %10, align 4, !tbaa !21
  %11 = icmp sgt i32 %.val20.i, 0
  br i1 %11, label %.lr.ph29.i, label %Pla_ManDist1Num.exit

.lr.ph29.i:                                       ; preds = %Abc_Clock.exit
  %12 = getelementptr i8, ptr %0, i64 28
  %.val23.i = load i32, ptr %12, align 4, !tbaa !34
  %.val23.fr.i = freeze i32 %.val23.i
  %13 = getelementptr i8, ptr %0, i64 80
  %.val24.i = load ptr, ptr %13, align 8, !tbaa !26
  %14 = icmp sgt i32 %.val23.fr.i, 0
  %wide.trip.count.i.i = zext i32 %.val23.fr.i to i64
  br i1 %14, label %.lr.ph29.split.us.preheader.i, label %Pla_ManDist1Num.exit

.lr.ph29.split.us.preheader.i:                    ; preds = %.lr.ph29.i
  %15 = zext nneg i32 %.val20.i to i64
  br label %.lr.ph29.split.us.i

.lr.ph29.split.us.i:                              ; preds = %.critedge2.loopexit.us.i, %.lr.ph29.split.us.preheader.i
  %indvars.iv36.i = phi i64 [ 0, %.lr.ph29.split.us.preheader.i ], [ %indvars.iv.next37.i, %.critedge2.loopexit.us.i ]
  %indvars.iv.i = phi i64 [ 1, %.lr.ph29.split.us.preheader.i ], [ %indvars.iv.next.i, %.critedge2.loopexit.us.i ]
  %.028.us.i = phi i32 [ 0, %.lr.ph29.split.us.preheader.i ], [ %.1.lcssa.us.i, %.critedge2.loopexit.us.i ]
  %16 = mul nuw nsw i64 %indvars.iv36.i, %wide.trip.count.i.i
  %17 = getelementptr inbounds nuw i64, ptr %.val24.i, i64 %16
  %indvars.iv.next37.i = add nuw nsw i64 %indvars.iv36.i, 1
  %18 = icmp samesign ult i64 %indvars.iv.next37.i, %15
  br i1 %18, label %.lr.ph.preheader.i.us.us.i, label %.critedge2.loopexit.us.i

.critedge2.loopexit.us.i:                         ; preds = %Pla_CubesAreDistance1.exit.loopexit.us.us.i, %.lr.ph29.split.us.i
  %.1.lcssa.us.i = phi i32 [ %.028.us.i, %.lr.ph29.split.us.i ], [ %34, %Pla_CubesAreDistance1.exit.loopexit.us.us.i ]
  %indvars.iv.next.i = add nuw nsw i64 %indvars.iv.i, 1
  %exitcond40.not.i = icmp eq i64 %indvars.iv.next37.i, %15
  br i1 %exitcond40.not.i, label %Pla_ManDist1Num.exit, label %.lr.ph29.split.us.i, !llvm.loop !62

.lr.ph.preheader.i.us.us.i:                       ; preds = %.lr.ph29.split.us.i, %Pla_CubesAreDistance1.exit.loopexit.us.us.i
  %indvars.iv33.i = phi i64 [ %indvars.iv.next34.i, %Pla_CubesAreDistance1.exit.loopexit.us.us.i ], [ %indvars.iv.i, %.lr.ph29.split.us.i ]
  %.126.us.us.i = phi i32 [ %34, %Pla_CubesAreDistance1.exit.loopexit.us.us.i ], [ %.028.us.i, %.lr.ph29.split.us.i ]
  %19 = mul nuw nsw i64 %indvars.iv33.i, %wide.trip.count.i.i
  %20 = getelementptr inbounds nuw i64, ptr %.val24.i, i64 %19
  br label %.lr.ph.i.us.us.i

.lr.ph.i.us.us.i:                                 ; preds = %33, %.lr.ph.preheader.i.us.us.i
  %indvars.iv.i.us.us.i = phi i64 [ 0, %.lr.ph.preheader.i.us.us.i ], [ %indvars.iv.next.i.us.us.i, %33 ]
  %.026.i.us.us.i = phi i32 [ 0, %.lr.ph.preheader.i.us.us.i ], [ %.1.i.us.us.i, %33 ]
  %21 = getelementptr inbounds nuw i64, ptr %17, i64 %indvars.iv.i.us.us.i
  %22 = load i64, ptr %21, align 8, !tbaa !35
  %23 = getelementptr inbounds nuw i64, ptr %20, i64 %indvars.iv.i.us.us.i
  %24 = load i64, ptr %23, align 8, !tbaa !35
  %25 = icmp eq i64 %22, %24
  br i1 %25, label %33, label %26

26:                                               ; preds = %.lr.ph.i.us.us.i
  %.not.i.us.us.i = icmp eq i32 %.026.i.us.us.i, 0
  br i1 %.not.i.us.us.i, label %27, label %Pla_CubesAreDistance1.exit.loopexit.us.us.i

27:                                               ; preds = %26
  %28 = xor i64 %24, %22
  %29 = lshr i64 %28, 1
  %30 = or i64 %29, %28
  %31 = and i64 %30, 6148914691236517205
  %32 = call range(i64 0, 33) i64 @llvm.ctpop.i64(i64 range(i64 0, 6148914691236517206) %31)
  %or.cond.not.i.us.us.i = icmp eq i64 %32, 1
  br i1 %or.cond.not.i.us.us.i, label %33, label %Pla_CubesAreDistance1.exit.loopexit.us.us.i

33:                                               ; preds = %27, %.lr.ph.i.us.us.i
  %.1.i.us.us.i = phi i32 [ %.026.i.us.us.i, %.lr.ph.i.us.us.i ], [ 1, %27 ]
  %indvars.iv.next.i.us.us.i = add nuw nsw i64 %indvars.iv.i.us.us.i, 1
  %exitcond.not.i.us.us.i = icmp eq i64 %indvars.iv.next.i.us.us.i, %wide.trip.count.i.i
  br i1 %exitcond.not.i.us.us.i, label %Pla_CubesAreDistance1.exit.loopexit.us.us.i, label %.lr.ph.i.us.us.i, !llvm.loop !63

Pla_CubesAreDistance1.exit.loopexit.us.us.i:      ; preds = %33, %27, %26
  %.019.i.ph.us.us.i = phi i32 [ 0, %26 ], [ %.1.i.us.us.i, %33 ], [ 0, %27 ]
  %34 = add nsw i32 %.019.i.ph.us.us.i, %.126.us.us.i
  %indvars.iv.next34.i = add nuw nsw i64 %indvars.iv33.i, 1
  %exitcond.not.i = icmp eq i64 %indvars.iv.next34.i, %15
  br i1 %exitcond.not.i, label %.critedge2.loopexit.us.i, label %.lr.ph.preheader.i.us.us.i, !llvm.loop !64

Pla_ManDist1Num.exit:                             ; preds = %.critedge2.loopexit.us.i, %Abc_Clock.exit, %.lr.ph29.i
  %.0.lcssa.i = phi i32 [ 0, %Abc_Clock.exit ], [ 0, %.lr.ph29.i ], [ %.1.lcssa.us.i, %.critedge2.loopexit.us.i ]
  %35 = call i32 (ptr, ...) @printf(ptr noundef nonnull dereferenceable(1) @.str.16, i32 noundef %.0.lcssa.i, i32 noundef %.val20.i)
  call void @llvm.lifetime.start.p0(i64 16, ptr nonnull %2) #18
  %36 = call i32 @clock_gettime(i32 noundef 1, ptr noundef nonnull %2) #18
  %37 = icmp slt i32 %36, 0
  br i1 %37, label %Abc_Clock.exit4, label %38

38:                                               ; preds = %Pla_ManDist1Num.exit
  %39 = load i64, ptr %2, align 8, !tbaa !65
  %40 = mul nsw i64 %39, 1000000
  %41 = getelementptr inbounds nuw i8, ptr %2, i64 8
  %42 = load i64, ptr %41, align 8, !tbaa !67
  %43 = sdiv i64 %42, 1000
  %44 = add nsw i64 %43, %40
  br label %Abc_Clock.exit4

Abc_Clock.exit4:                                  ; preds = %Pla_ManDist1Num.exit, %38
  %.0.i3 = phi i64 [ %44, %38 ], [ -1, %Pla_ManDist1Num.exit ]
  call void @llvm.lifetime.end.p0(i64 16, ptr nonnull %2) #18
  %45 = add i64 %.0.i3, %.0.i.neg
  call void (i32, ptr, ...) @Abc_Print(i32 poison, ptr noundef nonnull @.str.18, ptr noundef nonnull @.str.17)
  %46 = sitofp i64 %45 to double
  %47 = fdiv double %46, 1.000000e+06
  call void (i32, ptr, ...) @Abc_Print(i32 poison, ptr noundef nonnull @.str.19, double noundef %47)
  ret i32 1
}